target datalayout = "e-m:e-p270:32:32-p271:32:32-p272:64:64-i64:64-i128:128-f80:128-n8:16:32:64-S128"
target triple = "x86_64-pc-linux-gnu"

%struct.IVIPlaneDesc = type { i16, i16, i8, ptr }
%struct.IVIBandDesc = type { i32, i32, i32, i32, i32, ptr, i32, ptr, ptr, ptr, [4 x ptr], i64, i32, i32, i32, i32, i32, i32, i32, i32, i32, ptr, i32, %struct.IVIHuffTab, i32, [122 x i8], i32, ptr, i32, ptr, ptr, i32, ptr, i32, i32, i32, i32, ptr, ptr, ptr, ptr }
%struct.IVIHuffTab = type { i32, ptr, %struct.IVIHuffDesc, %struct.VLC }
%struct.IVIHuffDesc = type { i32, [16 x i8] }
%struct.VLC = type { i32, ptr, i32, i32 }

; Function Attrs: alwaysinline nounwind willreturn memory(none) uwtable
define internal zeroext i8 @av_clip_uint8_c(i32 noundef %0) #2 {
  %2 = alloca i8, align 1
  %3 = alloca i32, align 4
  store i32 %0, ptr %3, align 4, !tbaa !13
  %4 = load i32, ptr %3, align 4, !tbaa !13
  %5 = and i32 %4, -256
  %6 = icmp ne i32 %5, 0
  br i1 %6, label %7, label %12

7:                                                ; preds = %1
  %8 = load i32, ptr %3, align 4, !tbaa !13
  %9 = xor i32 %8, -1
  %10 = ashr i32 %9, 31
  %11 = trunc i32 %10 to i8
  store i8 %11, ptr %2, align 1
  br label %15

12:                                               ; preds = %1
  %13 = load i32, ptr %3, align 4, !tbaa !13
  %14 = trunc i32 %13 to i8
  store i8 %14, ptr %2, align 1
  br label %15

15:                                               ; preds = %12, %7
  %16 = load i8, ptr %2, align 1
  ret i8 %16
}

; Function Attrs: nounwind uwtable
define void @ff_ivi_recompose_haar(ptr noundef %0, ptr noundef %1, i64 noundef %2) #0 {
  %4 = alloca ptr, align 8
  %5 = alloca ptr, align 8
  %6 = alloca i64, align 8
  %7 = alloca i32, align 4
  %8 = alloca i32, align 4
  %9 = alloca i32, align 4
  %10 = alloca i32, align 4
  %11 = alloca i32, align 4
  %12 = alloca i32, align 4
  %13 = alloca i32, align 4
  %14 = alloca i32, align 4
  %15 = alloca i32, align 4
  %16 = alloca i32, align 4
  %17 = alloca i32, align 4
  %18 = alloca ptr, align 8
  %19 = alloca ptr, align 8
  %20 = alloca ptr, align 8
  %21 = alloca ptr, align 8
  %22 = alloca i64, align 8
  store ptr %0, ptr %4, align 8, !tbaa !4
  store ptr %1, ptr %5, align 8, !tbaa !9
  store i64 %2, ptr %6, align 8, !tbaa !11
  call void @llvm.lifetime.start.p0(i64 4, ptr %7) #4
  call void @llvm.lifetime.start.p0(i64 4, ptr %8) #4
  call void @llvm.lifetime.start.p0(i64 4, ptr %9) #4
  call void @llvm.lifetime.start.p0(i64 4, ptr %10) #4
  call void @llvm.lifetime.start.p0(i64 4, ptr %11) #4
  call void @llvm.lifetime.start.p0(i64 4, ptr %12) #4
  call void @llvm.lifetime.start.p0(i64 4, ptr %13) #4
  call void @llvm.lifetime.start.p0(i64 4, ptr %14) #4
  call void @llvm.lifetime.start.p0(i64 4, ptr %15) #4
  call void @llvm.lifetime.start.p0(i64 4, ptr %16) #4
  call void @llvm.lifetime.start.p0(i64 4, ptr %17) #4
  call void @llvm.lifetime.start.p0(i64 8, ptr %18) #4
  call void @llvm.lifetime.start.p0(i64 8, ptr %19) #4
  call void @llvm.lifetime.start.p0(i64 8, ptr %20) #4
  call void @llvm.lifetime.start.p0(i64 8, ptr %21) #4
  call void @llvm.lifetime.start.p0(i64 8, ptr %22) #4
  %23 = load ptr, ptr %4, align 8, !tbaa !4
  %24 = getelementptr inbounds nuw %struct.IVIPlaneDesc, ptr %23, i32 0, i32 3
  %25 = load ptr, ptr %24, align 8, !tbaa !15
  %26 = getelementptr inbounds %struct.IVIBandDesc, ptr %25, i64 0
  %27 = getelementptr inbounds nuw %struct.IVIBandDesc, ptr %26, i32 0, i32 11
  %28 = load i64, ptr %27, align 8, !tbaa !19
  store i64 %28, ptr %22, align 8, !tbaa !11
  %29 = load ptr, ptr %4, align 8, !tbaa !4
  %30 = getelementptr inbounds nuw %struct.IVIPlaneDesc, ptr %29, i32 0, i32 3
  %31 = load ptr, ptr %30, align 8, !tbaa !15
  %32 = getelementptr inbounds %struct.IVIBandDesc, ptr %31, i64 0
  %33 = getelementptr inbounds nuw %struct.IVIBandDesc, ptr %32, i32 0, i32 7
  %34 = load ptr, ptr %33, align 8, !tbaa !29
  store ptr %34, ptr %18, align 8, !tbaa !30
  %35 = load ptr, ptr %4, align 8, !tbaa !4
  %36 = getelementptr inbounds nuw %struct.IVIPlaneDesc, ptr %35, i32 0, i32 3
  %37 = load ptr, ptr %36, align 8, !tbaa !15
  %38 = getelementptr inbounds %struct.IVIBandDesc, ptr %37, i64 1
  %39 = getelementptr inbounds nuw %struct.IVIBandDesc, ptr %38, i32 0, i32 7
  %40 = load ptr, ptr %39, align 8, !tbaa !29
  store ptr %40, ptr %19, align 8, !tbaa !30
  %41 = load ptr, ptr %4, align 8, !tbaa !4
  %42 = getelementptr inbounds nuw %struct.IVIPlaneDesc, ptr %41, i32 0, i32 3
  %43 = load ptr, ptr %42, align 8, !tbaa !15
  %44 = getelementptr inbounds %struct.IVIBandDesc, ptr %43, i64 2
  %45 = getelementptr inbounds nuw %struct.IVIBandDesc, ptr %44, i32 0, i32 7
  %46 = load ptr, ptr %45, align 8, !tbaa !29
  store ptr %46, ptr %20, align 8, !tbaa !30
  %47 = load ptr, ptr %4, align 8, !tbaa !4
  %48 = getelementptr inbounds nuw %struct.IVIPlaneDesc, ptr %47, i32 0, i32 3
  %49 = load ptr, ptr %48, align 8, !tbaa !15
  %50 = getelementptr inbounds %struct.IVIBandDesc, ptr %49, i64 3
  %51 = getelementptr inbounds nuw %struct.IVIBandDesc, ptr %50, i32 0, i32 7
  %52 = load ptr, ptr %51, align 8, !tbaa !29
  store ptr %52, ptr %21, align 8, !tbaa !30
  store i32 0, ptr %8, align 4, !tbaa !13
  br label %53

53:                                               ; preds = %185, %3
  %54 = load i32, ptr %8, align 4, !tbaa !13
  %55 = load ptr, ptr %4, align 8, !tbaa !4
  %56 = getelementptr inbounds nuw %struct.IVIPlaneDesc, ptr %55, i32 0, i32 1
  %57 = load i16, ptr %56, align 2, !tbaa !31
  %58 = zext i16 %57 to i32
  %59 = icmp slt i32 %54, %58
  br i1 %59, label %60, label %188

60:                                               ; preds = %53
  store i32 0, ptr %7, align 4, !tbaa !13
  store i32 0, ptr %9, align 4, !tbaa !13
  br label %61

61:                                               ; preds = %163, %60
  %62 = load i32, ptr %7, align 4, !tbaa !13
  %63 = load ptr, ptr %4, align 8, !tbaa !4
  %64 = getelementptr inbounds nuw %struct.IVIPlaneDesc, ptr %63, i32 0, i32 0
  %65 = load i16, ptr %64, align 8, !tbaa !33
  %66 = zext i16 %65 to i32
  %67 = icmp slt i32 %62, %66
  br i1 %67, label %68, label %168

68:                                               ; preds = %61
  %69 = load ptr, ptr %18, align 8, !tbaa !30
  %70 = load i32, ptr %9, align 4, !tbaa !13
  %71 = sext i32 %70 to i64
  %72 = getelementptr inbounds i16, ptr %69, i64 %71
  %73 = load i16, ptr %72, align 2, !tbaa !32
  %74 = sext i16 %73 to i32
  store i32 %74, ptr %10, align 4, !tbaa !13
  %75 = load ptr, ptr %19, align 8, !tbaa !30
  %76 = load i32, ptr %9, align 4, !tbaa !13
  %77 = sext i32 %76 to i64
  %78 = getelementptr inbounds i16, ptr %75, i64 %77
  %79 = load i16, ptr %78, align 2, !tbaa !32
  %80 = sext i16 %79 to i32
  store i32 %80, ptr %11, align 4, !tbaa !13
  %81 = load ptr, ptr %20, align 8, !tbaa !30
  %82 = load i32, ptr %9, align 4, !tbaa !13
  %83 = sext i32 %82 to i64
  %84 = getelementptr inbounds i16, ptr %81, i64 %83
  %85 = load i16, ptr %84, align 2, !tbaa !32
  %86 = sext i16 %85 to i32
  store i32 %86, ptr %12, align 4, !tbaa !13
  %87 = load ptr, ptr %21, align 8, !tbaa !30
  %88 = load i32, ptr %9, align 4, !tbaa !13
  %89 = sext i32 %88 to i64
  %90 = getelementptr inbounds i16, ptr %87, i64 %89
  %91 = load i16, ptr %90, align 2, !tbaa !32
  %92 = sext i16 %91 to i32
  store i32 %92, ptr %13, align 4, !tbaa !13
  %93 = load i32, ptr %10, align 4, !tbaa !13
  %94 = load i32, ptr %11, align 4, !tbaa !13
  %95 = add nsw i32 %93, %94
  %96 = load i32, ptr %12, align 4, !tbaa !13
  %97 = add nsw i32 %95, %96
  %98 = load i32, ptr %13, align 4, !tbaa !13
  %99 = add nsw i32 %97, %98
  %100 = add nsw i32 %99, 2
  %101 = ashr i32 %100, 2
  store i32 %101, ptr %14, align 4, !tbaa !13
  %102 = load i32, ptr %10, align 4, !tbaa !13
  %103 = load i32, ptr %11, align 4, !tbaa !13
  %104 = add nsw i32 %102, %103
  %105 = load i32, ptr %12, align 4, !tbaa !13
  %106 = sub nsw i32 %104, %105
  %107 = load i32, ptr %13, align 4, !tbaa !13
  %108 = sub nsw i32 %106, %107
  %109 = add nsw i32 %108, 2
  %110 = ashr i32 %109, 2
  store i32 %110, ptr %15, align 4, !tbaa !13
  %111 = load i32, ptr %10, align 4, !tbaa !13
  %112 = load i32, ptr %11, align 4, !tbaa !13
  %113 = sub nsw i32 %111, %112
  %114 = load i32, ptr %12, align 4, !tbaa !13
  %115 = add nsw i32 %113, %114
  %116 = load i32, ptr %13, align 4, !tbaa !13
  %117 = sub nsw i32 %115, %116
  %118 = add nsw i32 %117, 2
  %119 = ashr i32 %118, 2
  store i32 %119, ptr %16, align 4, !tbaa !13
  %120 = load i32, ptr %10, align 4, !tbaa !13
  %121 = load i32, ptr %11, align 4, !tbaa !13
  %122 = sub nsw i32 %120, %121
  %123 = load i32, ptr %12, align 4, !tbaa !13
  %124 = sub nsw i32 %122, %123
  %125 = load i32, ptr %13, align 4, !tbaa !13
  %126 = add nsw i32 %124, %125
  %127 = add nsw i32 %126, 2
  %128 = ashr i32 %127, 2
  store i32 %128, ptr %17, align 4, !tbaa !13
  %129 = load i32, ptr %14, align 4, !tbaa !13
  %130 = add nsw i32 %129, 128
  %131 = call zeroext i8 @av_clip_uint8_c(i32 noundef %130) #5
  %132 = load ptr, ptr %5, align 8, !tbaa !9
  %133 = load i32, ptr %7, align 4, !tbaa !13
  %134 = sext i32 %133 to i64
  %135 = getelementptr inbounds i8, ptr %132, i64 %134
  store i8 %131, ptr %135, align 1, !tbaa !34
  %136 = load i32, ptr %15, align 4, !tbaa !13
  %137 = add nsw i32 %136, 128
  %138 = call zeroext i8 @av_clip_uint8_c(i32 noundef %137) #5
  %139 = load ptr, ptr %5, align 8, !tbaa !9
  %140 = load i32, ptr %7, align 4, !tbaa !13
  %141 = add nsw i32 %140, 1
  %142 = sext i32 %141 to i64
  %143 = getelementptr inbounds i8, ptr %139, i64 %142
  store i8 %138, ptr %143, align 1, !tbaa !34
  %144 = load i32, ptr %16, align 4, !tbaa !13
  %145 = add nsw i32 %144, 128
  %146 = call zeroext i8 @av_clip_uint8_c(i32 noundef %145) #5
  %147 = load ptr, ptr %5, align 8, !tbaa !9
  %148 = load i64, ptr %6, align 8, !tbaa !11
  %149 = load i32, ptr %7, align 4, !tbaa !13
  %150 = sext i32 %149 to i64
  %151 = add nsw i64 %148, %150
  %152 = getelementptr inbounds i8, ptr %147, i64 %151
  store i8 %146, ptr %152, align 1, !tbaa !34
  %153 = load i32, ptr %17, align 4, !tbaa !13
  %154 = add nsw i32 %153, 128
  %155 = call zeroext i8 @av_clip_uint8_c(i32 noundef %154) #5
  %156 = load ptr, ptr %5, align 8, !tbaa !9
  %157 = load i64, ptr %6, align 8, !tbaa !11
  %158 = load i32, ptr %7, align 4, !tbaa !13
  %159 = sext i32 %158 to i64
  %160 = add nsw i64 %157, %159
  %161 = add nsw i64 %160, 1
  %162 = getelementptr inbounds i8, ptr %156, i64 %161
  store i8 %155, ptr %162, align 1, !tbaa !34
  br label %163

163:                                              ; preds = %68
  %164 = load i32, ptr %7, align 4, !tbaa !13
  %165 = add nsw i32 %164, 2
  store i32 %165, ptr %7, align 4, !tbaa !13
  %166 = load i32, ptr %9, align 4, !tbaa !13
  %167 = add nsw i32 %166, 1
  store i32 %167, ptr %9, align 4, !tbaa !13
  br label %61, !llvm.loop !38

168:                                              ; preds = %61
  %169 = load i64, ptr %6, align 8, !tbaa !11
  %170 = shl i64 %169, 1
  %171 = load ptr, ptr %5, align 8, !tbaa !9
  %172 = getelementptr inbounds i8, ptr %171, i64 %170
  store ptr %172, ptr %5, align 8, !tbaa !9
  %173 = load i64, ptr %22, align 8, !tbaa !11
  %174 = load ptr, ptr %18, align 8, !tbaa !30
  %175 = getelementptr inbounds i16, ptr %174, i64 %173
  store ptr %175, ptr %18, align 8, !tbaa !30
  %176 = load i64, ptr %22, align 8, !tbaa !11
  %177 = load ptr, ptr %19, align 8, !tbaa !30
  %178 = getelementptr inbounds i16, ptr %177, i64 %176
  store ptr %178, ptr %19, align 8, !tbaa !30
  %179 = load i64, ptr %22, align 8, !tbaa !11
  %180 = load ptr, ptr %20, align 8, !tbaa !30
  %181 = getelementptr inbounds i16, ptr %180, i64 %179
  store ptr %181, ptr %20, align 8, !tbaa !30
  %182 = load i64, ptr %22, align 8, !tbaa !11
  %183 = load ptr, ptr %21, align 8, !tbaa !30
  %184 = getelementptr inbounds i16, ptr %183, i64 %182
  store ptr %184, ptr %21, align 8, !tbaa !30
  br label %185

185:                                              ; preds = %168
  %186 = load i32, ptr %8, align 4, !tbaa !13
  %187 = add nsw i32 %186, 2
  store i32 %187, ptr %8, align 4, !tbaa !13
  br label %53, !llvm.loop !39

188:                                              ; preds = %53
  call void @llvm.lifetime.end.p0(i64 8, ptr %22) #4
  call void @llvm.lifetime.end.p0(i64 8, ptr %21) #4
  call void @llvm.lifetime.end.p0(i64 8, ptr %20) #4
  call void @llvm.lifetime.end.p0(i64 8, ptr %19) #4
  call void @llvm.lifetime.end.p0(i64 8, ptr %18) #4
  call void @llvm.lifetime.end.p0(i64 4, ptr %17) #4
  call void @llvm.lifetime.end.p0(i64 4, ptr %16) #4
  call void @llvm.lifetime.end.p0(i64 4, ptr %15) #4
  call void @llvm.lifetime.end.p0(i64 4, ptr %14) #4
  call void @llvm.lifetime.end.p0(i64 4, ptr %13) #4
  call void @llvm.lifetime.end.p0(i64 4, ptr %12) #4
  call void @llvm.lifetime.end.p0(i64 4, ptr %11) #4
  call void @llvm.lifetime.end.p0(i64 4, ptr %10) #4
  call void @llvm.lifetime.end.p0(i64 4, ptr %9) #4
  call void @llvm.lifetime.end.p0(i64 4, ptr %8) #4
  call void @llvm.lifetime.end.p0(i64 4, ptr %7) #4
  ret void
}