; Function Attrs: nofree norecurse nosync nounwind memory(read, argmem: readwrite, inaccessiblemem: none) uwtable
define void @ff_ivi_recompose_haar(ptr noundef readonly captures(none) %0, ptr noundef writeonly captures(none) %1, i64 noundef %2) local_unnamed_addr #0 {
  %4 = getelementptr inbounds nuw i8, ptr %0, i64 8
  %5 = load ptr, ptr %4, align 8, !tbaa !11
  %6 = getelementptr inbounds nuw i8, ptr %5, i64 96
  %7 = load i64, ptr %6, align 8, !tbaa !25
  %8 = getelementptr inbounds nuw i8, ptr %0, i64 2
  %9 = load i16, ptr %8, align 2, !tbaa !4
  %.not = icmp eq i16 %9, 0
  br i1 %.not, label %._crit_edge85, label %.preheader.lr.ph

.preheader.lr.ph:                                 ; preds = %3
  %10 = getelementptr inbounds nuw i8, ptr %5, i64 1408
  %11 = load ptr, ptr %10, align 8, !tbaa !12
  %12 = getelementptr inbounds nuw i8, ptr %5, i64 952
  %13 = load ptr, ptr %12, align 8, !tbaa !12
  %14 = getelementptr inbounds nuw i8, ptr %5, i64 496
  %15 = load ptr, ptr %14, align 8, !tbaa !12
  %16 = getelementptr inbounds nuw i8, ptr %5, i64 40
  %17 = load ptr, ptr %16, align 8, !tbaa !12
  %18 = shl i64 %2, 1
  %.pre = load i16, ptr %0, align 8, !tbaa !26
  br label %.preheader

.preheader:                                       ; preds = %.preheader.lr.ph, %._crit_edge
  %19 = phi i16 [ %9, %.preheader.lr.ph ], [ %71, %._crit_edge ]
  %20 = phi i16 [ %.pre, %.preheader.lr.ph ], [ %72, %._crit_edge ]
  %.084 = phi ptr [ %1, %.preheader.lr.ph ], [ %73, %._crit_edge ]
  %.05983 = phi ptr [ %11, %.preheader.lr.ph ], [ %77, %._crit_edge ]
  %.06082 = phi ptr [ %13, %.preheader.lr.ph ], [ %76, %._crit_edge ]
  %.06181 = phi ptr [ %15, %.preheader.lr.ph ], [ %75, %._crit_edge ]
  %.06280 = phi ptr [ %17, %.preheader.lr.ph ], [ %74, %._crit_edge ]
  %.06479 = phi i32 [ 0, %.preheader.lr.ph ], [ %78, %._crit_edge ]
  %.not86 = icmp eq i16 %20, 0
  br i1 %.not86, label %._crit_edge, label %.lr.ph

.lr.ph:                                           ; preds = %.preheader
  %21 = getelementptr i8, ptr %.084, i64 %2
  br label %22

22:                                               ; preds = %.lr.ph, %22
  %indvars.iv87 = phi i64 [ 0, %.lr.ph ], [ %indvars.iv.next88, %22 ]
  %indvars.iv = phi i64 [ 0, %.lr.ph ], [ %indvars.iv.next, %22 ]
  %23 = getelementptr inbounds nuw i16, ptr %.06280, i64 %indvars.iv87
  %24 = load i16, ptr %23, align 2, !tbaa !27
  %25 = sext i16 %24 to i32
  %26 = getelementptr inbounds nuw i16, ptr %.06181, i64 %indvars.iv87
  %27 = load i16, ptr %26, align 2, !tbaa !27
  %28 = sext i16 %27 to i32
  %29 = getelementptr inbounds nuw i16, ptr %.06082, i64 %indvars.iv87
  %30 = load i16, ptr %29, align 2, !tbaa !27
  %31 = sext i16 %30 to i32
  %32 = getelementptr inbounds nuw i16, ptr %.05983, i64 %indvars.iv87
  %33 = load i16, ptr %32, align 2, !tbaa !27
  %34 = sext i16 %33 to i32
  %35 = add nsw i32 %28, %25
  %36 = add nsw i32 %34, 2
  %37 = add nsw i32 %36, %31
  %38 = add nsw i32 %37, %35
  %39 = ashr i32 %38, 2
  %40 = add nsw i32 %35, 2
  %41 = add nsw i32 %31, %34
  %42 = sub nsw i32 %40, %41
  %43 = ashr i32 %42, 2
  %44 = sub nsw i32 %25, %28
  %45 = add nsw i32 %31, 2
  %46 = add nsw i32 %45, %44
  %47 = sub nsw i32 %46, %34
  %48 = ashr i32 %47, 2
  %49 = sub nsw i32 %36, %31
  %50 = add nsw i32 %49, %44
  %51 = ashr i32 %50, 2
  %52 = add nsw i32 %39, 128
  %.not.i72 = icmp ult i32 %52, 256
  %isnotneg.i73 = icmp sgt i32 %39, -129
  %53 = sext i1 %isnotneg.i73 to i8
  %54 = trunc nuw i32 %52 to i8
  %.0.i74 = select i1 %.not.i72, i8 %54, i8 %53
  %55 = getelementptr inbounds nuw i8, ptr %.084, i64 %indvars.iv
  store i8 %.0.i74, ptr %55, align 1, !tbaa !28
  %56 = add nsw i32 %43, 128
  %.not.i69 = icmp ult i32 %56, 256
  %isnotneg.i70 = icmp sgt i32 %43, -129
  %57 = sext i1 %isnotneg.i70 to i8
  %58 = trunc nuw i32 %56 to i8
  %.0.i71 = select i1 %.not.i69, i8 %58, i8 %57
  %59 = getelementptr inbounds nuw i8, ptr %55, i64 1
  store i8 %.0.i71, ptr %59, align 1, !tbaa !28
  %60 = add nsw i32 %48, 128
  %.not.i66 = icmp ult i32 %60, 256
  %isnotneg.i67 = icmp sgt i32 %48, -129
  %61 = sext i1 %isnotneg.i67 to i8
  %62 = trunc nuw i32 %60 to i8
  %.0.i68 = select i1 %.not.i66, i8 %62, i8 %61
  %63 = getelementptr i8, ptr %21, i64 %indvars.iv
  store i8 %.0.i68, ptr %63, align 1, !tbaa !28
  %64 = add nsw i32 %51, 128
  %.not.i = icmp ult i32 %64, 256
  %isnotneg.i = icmp sgt i32 %51, -129
  %65 = sext i1 %isnotneg.i to i8
  %66 = trunc nuw i32 %64 to i8
  %.0.i = select i1 %.not.i, i8 %66, i8 %65
  %67 = getelementptr i8, ptr %63, i64 1
  store i8 %.0.i, ptr %67, align 1, !tbaa !28
  %indvars.iv.next = add nuw nsw i64 %indvars.iv, 2
  %indvars.iv.next88 = add nuw nsw i64 %indvars.iv87, 1
  %68 = load i16, ptr %0, align 8, !tbaa !26
  %69 = zext i16 %68 to i64
  %70 = icmp samesign ult i64 %indvars.iv.next, %69
  br i1 %70, label %22, label %._crit_edge.loopexit, !llvm.loop !32

._crit_edge.loopexit:                             ; preds = %22
  %.pre92 = load i16, ptr %8, align 2, !tbaa !4
  br label %._crit_edge

._crit_edge:                                      ; preds = %._crit_edge.loopexit, %.preheader
  %71 = phi i16 [ %.pre92, %._crit_edge.loopexit ], [ %19, %.preheader ]
  %72 = phi i16 [ %68, %._crit_edge.loopexit ], [ 0, %.preheader ]
  %73 = getelementptr inbounds i8, ptr %.084, i64 %18
  %74 = getelementptr inbounds i16, ptr %.06280, i64 %7
  %75 = getelementptr inbounds i16, ptr %.06181, i64 %7
  %76 = getelementptr inbounds i16, ptr %.06082, i64 %7
  %77 = getelementptr inbounds i16, ptr %.05983, i64 %7
  %78 = add nuw nsw i32 %.06479, 2
  %79 = zext i16 %71 to i32
  %80 = icmp samesign ult i32 %78, %79
  br i1 %80, label %.preheader, label %._crit_edge85, !llvm.loop !33

._crit_edge85:                                    ; preds = %._crit_edge, %3
  ret void
}